; Function Attrs: nounwind uwtable
define dso_local range(i32 0, -2147483648) i32 @bb_g_job_validate(ptr noundef %0, i32 noundef %1, ptr noundef %2) local_unnamed_addr #0 {
  %4 = alloca %struct.timeval, align 8
  %5 = alloca %struct.timeval, align 8
  %6 = alloca [20 x i8], align 16
  %7 = alloca i64, align 8
  call void @llvm.lifetime.start.p0(i64 16, ptr nonnull %4) #11
  call void @llvm.lifetime.start.p0(i64 16, ptr nonnull %5) #11
  call void @llvm.lifetime.start.p0(i64 20, ptr nonnull %6) #11
  call void @llvm.memset.p0.i64(ptr noundef nonnull align 16 dereferenceable(20) %6, i8 0, i64 20, i1 false)
  call void @llvm.lifetime.start.p0(i64 8, ptr nonnull %7) #11
  %8 = call i32 @gettimeofday(ptr noundef nonnull %4, ptr noundef null) #11
  %9 = tail call i32 @pthread_mutex_lock(ptr noundef nonnull @g_context_lock) #11
  %.not = icmp eq i32 %9, 0
  br i1 %.not, label %.preheader, label %12

.preheader:                                       ; preds = %3
  %10 = load i32, ptr @g_context_cnt, align 4
  %11 = icmp sgt i32 %10, 0
  br i1 %11, label %.lr.ph, label %._crit_edge

12:                                               ; preds = %3
  %13 = tail call ptr @__errno_location() #12
  store i32 %9, ptr %13, align 4
  tail call void (ptr, ...) @fatal_abort(ptr noundef nonnull @.str.1, ptr noundef nonnull @__func__.bb_g_job_validate) #13
  unreachable

.lr.ph:                                           ; preds = %.preheader, %.lr.ph
  %indvars.iv = phi i64 [ %indvars.iv.next, %.lr.ph ], [ 0, %.preheader ]
  %.01418 = phi i32 [ %18, %.lr.ph ], [ 0, %.preheader ]
  %14 = load ptr, ptr @ops, align 8
  %15 = getelementptr inbounds nuw %struct.slurm_bb_ops, ptr %14, i64 %indvars.iv, i32 6
  %16 = load ptr, ptr %15, align 8
  %17 = tail call i32 %16(ptr noundef %0, i32 noundef %1, ptr noundef %2) #11
  %18 = tail call i32 @llvm.smax.i32(i32 %.01418, i32 %17)
  %indvars.iv.next = add nuw nsw i64 %indvars.iv, 1
  %19 = load i32, ptr @g_context_cnt, align 4
  %20 = sext i32 %19 to i64
  %21 = icmp slt i64 %indvars.iv.next, %20
  br i1 %21, label %.lr.ph, label %._crit_edge, !llvm.loop !17

._crit_edge:                                      ; preds = %.lr.ph, %.preheader
  %.014.lcssa = phi i32 [ 0, %.preheader ], [ %18, %.lr.ph ]
  %22 = tail call i32 @pthread_mutex_unlock(ptr noundef nonnull @g_context_lock) #11
  %.not17 = icmp eq i32 %22, 0
  br i1 %.not17, label %25, label %23

23:                                               ; preds = %._crit_edge
  %24 = tail call ptr @__errno_location() #12
  store i32 %22, ptr %24, align 4
  tail call void (ptr, ...) @fatal_abort(ptr noundef nonnull @.str.8, ptr noundef nonnull @__func__.bb_g_job_validate) #13
  unreachable

25:                                               ; preds = %._crit_edge
  %26 = call i32 @gettimeofday(ptr noundef nonnull %5, ptr noundef null) #11
  call void @slurm_diff_tv_str(ptr noundef nonnull %4, ptr noundef nonnull %5, ptr noundef nonnull %6, i32 noundef 20, ptr noundef nonnull @__func__.bb_g_job_validate, i64 noundef 0, ptr noundef nonnull %7) #11
  call void @llvm.lifetime.end.p0(i64 8, ptr nonnull %7) #11
  call void @llvm.lifetime.end.p0(i64 20, ptr nonnull %6) #11
  call void @llvm.lifetime.end.p0(i64 16, ptr nonnull %5) #11
  call void @llvm.lifetime.end.p0(i64 16, ptr nonnull %4) #11
  ret i32 %.014.lcssa
}